; ModuleID = '28/1851.c'
source_filename = "28/1851.c"
target datalayout = "e-m:e-p270:32:32-p271:32:32-p272:64:64-i64:64-f80:128-n8:16:32:64-S128"
target triple = "x86_64-pc-linux-gnu"

@.str = private unnamed_addr constant [3 x i8] c"%d\00", align 1
@.str.1 = private unnamed_addr constant [4 x i8] c"%d\0A\00", align 1
@.str.2 = private unnamed_addr constant [4 x i8] c",%d\00", align 1
@.str.3 = private unnamed_addr constant [5 x i8] c",%d\0A\00", align 1
@.str.4 = private unnamed_addr constant [2 x i8] c"\0A\00", align 1

; Function Attrs: noinline nounwind uwtable
define dso_local i32 @main() #0 {
  %1 = alloca i32, align 4
  %2 = alloca i8, align 1
  %3 = alloca i32, align 4
  store i32 0, i32* %1, align 4
  store i32 0, i32* %3, align 4
  br label %4

4:                                                ; preds = %27, %0
  %5 = call i32 @getchar()
  %6 = trunc i32 %5 to i8
  store i8 %6, i8* %2, align 1
  %7 = sext i8 %6 to i32
  %8 = icmp ne i32 %7, 10
  br i1 %8, label %9, label %28

9:                                                ; preds = %4
  %10 = load i8, i8* %2, align 1
  %11 = sext i8 %10 to i32
  %12 = icmp eq i32 %11, 32
  br i1 %12, label %13, label %19

13:                                               ; preds = %9
  %14 = load i32, i32* %3, align 4
  %15 = icmp ne i32 %14, 0
  br i1 %15, label %16, label %19

16:                                               ; preds = %13
  %17 = load i32, i32* %3, align 4
  %18 = call i32 (i8*, ...) @printf(i8* getelementptr inbounds ([3 x i8], [3 x i8]* @.str, i64 0, i64 0), i32 %17)
  store i32 0, i32* %3, align 4
  br label %28

19:                                               ; preds = %13, %9
  %20 = load i8, i8* %2, align 1
  %21 = sext i8 %20 to i32
  %22 = icmp ne i32 %21, 32
  br i1 %22, label %23, label %26

23:                                               ; preds = %19
  %24 = load i32, i32* %3, align 4
  %25 = add nsw i32 %24, 1
  store i32 %25, i32* %3, align 4
  br label %26

26:                                               ; preds = %23, %19
  br label %27

27:                                               ; preds = %26
  br label %4

28:                                               ; preds = %16, %4
  %29 = load i8, i8* %2, align 1
  %30 = sext i8 %29 to i32
  %31 = icmp eq i32 %30, 10
  br i1 %31, label %32, label %35

32:                                               ; preds = %28
  %33 = load i32, i32* %3, align 4
  %34 = call i32 (i8*, ...) @printf(i8* getelementptr inbounds ([4 x i8], [4 x i8]* @.str.1, i64 0, i64 0), i32 %33)
  store i32 0, i32* %1, align 4
  br label %69

35:                                               ; preds = %28
  br label %36

36:                                               ; preds = %59, %35
  %37 = call i32 @getchar()
  %38 = trunc i32 %37 to i8
  store i8 %38, i8* %2, align 1
  %39 = sext i8 %38 to i32
  %40 = icmp ne i32 %39, 10
  br i1 %40, label %41, label %60

41:                                               ; preds = %36
  %42 = load i8, i8* %2, align 1
  %43 = sext i8 %42 to i32
  %44 = icmp eq i32 %43, 32
  br i1 %44, label %45, label %51

45:                                               ; preds = %41
  %46 = load i32, i32* %3, align 4
  %47 = icmp ne i32 %46, 0
  br i1 %47, label %48, label %51

48:                                               ; preds = %45
  %49 = load i32, i32* %3, align 4
  %50 = call i32 (i8*, ...) @printf(i8* getelementptr inbounds ([4 x i8], [4 x i8]* @.str.2, i64 0, i64 0), i32 %49)
  store i32 0, i32* %3, align 4
  br label %59

51:                                               ; preds = %45, %41
  %52 = load i8, i8* %2, align 1
  %53 = sext i8 %52 to i32
  %54 = icmp ne i32 %53, 32
  br i1 %54, label %55, label %58

55:                                               ; preds = %51
  %56 = load i32, i32* %3, align 4
  %57 = add nsw i32 %56, 1
  store i32 %57, i32* %3, align 4
  br label %58

58:                                               ; preds = %55, %51
  br label %59

59:                                               ; preds = %58, %48
  br label %36

60:                                               ; preds = %36
  %61 = load i32, i32* %3, align 4
  %62 = icmp ne i32 %61, 0
  br i1 %62, label %63, label %66

63:                                               ; preds = %60
  %64 = load i32, i32* %3, align 4
  %65 = call i32 (i8*, ...) @printf(i8* getelementptr inbounds ([5 x i8], [5 x i8]* @.str.3, i64 0, i64 0), i32 %64)
  br label %68

66:                                               ; preds = %60
  %67 = call i32 (i8*, ...) @printf(i8* getelementptr inbounds ([2 x i8], [2 x i8]* @.str.4, i64 0, i64 0))
  br label %68

68:                                               ; preds = %66, %63
  store i32 0, i32* %1, align 4
  br label %69

69:                                               ; preds = %68, %32
  %70 = load i32, i32* %1, align 4
  ret i32 %70
}

declare dso_local i32 @getchar() #1

declare dso_local i32 @printf(i8*, ...) #1


!llvm.module.flags = !{!0}
!llvm.ident = !{!1}

!0 = !{i32 1, !"wchar_size", i32 4}
!1 = !{!"clang version 10.0.0-4ubuntu1 "}
