; ModuleID = 'source-C-CXX/27/1851.c'
source_filename = "source-C-CXX/27/1851.c"
target datalayout = "e-m:e-p270:32:32-p271:32:32-p272:64:64-i64:64-f80:128-n8:16:32:64-S128"
target triple = "x86_64-pc-linux-gnu"

%struct._IO_FILE = type { i32, i8*, i8*, i8*, i8*, i8*, i8*, i8*, i8*, i8*, i8*, i8*, %struct._IO_marker*, %struct._IO_FILE*, i32, i32, i64, i16, i8, [1 x i8], i8*, i64, %struct._IO_codecvt*, %struct._IO_wide_data*, %struct._IO_FILE*, i8*, i64, i32, [20 x i8] }
%struct._IO_marker = type opaque
%struct._IO_codecvt = type opaque
%struct._IO_wide_data = type opaque

@.str = private unnamed_addr constant [3 x i8] c"%d\00", align 1
@.str.1 = private unnamed_addr constant [4 x i8] c"%d\0A\00", align 1
@.str.2 = private unnamed_addr constant [4 x i8] c",%d\00", align 1
@.str.3 = private unnamed_addr constant [5 x i8] c",%d\0A\00", align 1
@stdin = external local_unnamed_addr global %struct._IO_FILE*, align 8

; Function Attrs: nofree nounwind sspstrong uwtable
define dso_local i32 @main() local_unnamed_addr #0 {
  %1 = load %struct._IO_FILE*, %struct._IO_FILE** @stdin, align 8, !tbaa !5
  %2 = tail call i32 @getc(%struct._IO_FILE* %1) #3
  %3 = shl i32 %2, 24
  %4 = icmp eq i32 %3, 167772160
  br i1 %4, label %25, label %5

5:                                                ; preds = %0, %11
  %6 = phi i32 [ %17, %11 ], [ %3, %0 ]
  %7 = phi i32 [ %14, %11 ], [ 0, %0 ]
  %8 = icmp eq i32 %6, 536870912
  %9 = icmp ne i32 %7, 0
  %10 = select i1 %8, i1 %9, i1 false
  br i1 %10, label %19, label %11

11:                                               ; preds = %5
  %12 = xor i1 %8, true
  %13 = zext i1 %12 to i32
  %14 = add nuw nsw i32 %7, %13
  %15 = load %struct._IO_FILE*, %struct._IO_FILE** @stdin, align 8, !tbaa !5
  %16 = tail call i32 @getc(%struct._IO_FILE* %15) #3
  %17 = shl i32 %16, 24
  %18 = icmp eq i32 %17, 167772160
  br i1 %18, label %25, label %5, !llvm.loop !9

19:                                               ; preds = %5
  %20 = tail call i32 (i8*, ...) @printf(i8* nonnull dereferenceable(1) getelementptr inbounds ([3 x i8], [3 x i8]* @.str, i64 0, i64 0), i32 %7)
  %21 = load %struct._IO_FILE*, %struct._IO_FILE** @stdin, align 8, !tbaa !5
  %22 = tail call i32 @getc(%struct._IO_FILE* %21) #3
  %23 = shl i32 %22, 24
  %24 = icmp eq i32 %23, 167772160
  br i1 %24, label %50, label %28

25:                                               ; preds = %11, %0
  %26 = phi i32 [ 0, %0 ], [ %14, %11 ]
  %27 = tail call i32 (i8*, ...) @printf(i8* nonnull dereferenceable(1) getelementptr inbounds ([4 x i8], [4 x i8]* @.str.1, i64 0, i64 0), i32 %26)
  br label %52

28:                                               ; preds = %19, %40
  %29 = phi i32 [ %44, %40 ], [ %23, %19 ]
  %30 = phi i32 [ %41, %40 ], [ 0, %19 ]
  %31 = icmp eq i32 %29, 536870912
  %32 = icmp ne i32 %30, 0
  %33 = select i1 %31, i1 %32, i1 false
  br i1 %33, label %34, label %36

34:                                               ; preds = %28
  %35 = tail call i32 (i8*, ...) @printf(i8* nonnull dereferenceable(1) getelementptr inbounds ([4 x i8], [4 x i8]* @.str.2, i64 0, i64 0), i32 %30)
  br label %40

36:                                               ; preds = %28
  %37 = xor i1 %31, true
  %38 = zext i1 %37 to i32
  %39 = add nsw i32 %30, %38
  br label %40

40:                                               ; preds = %36, %34
  %41 = phi i32 [ 0, %34 ], [ %39, %36 ]
  %42 = load %struct._IO_FILE*, %struct._IO_FILE** @stdin, align 8, !tbaa !5
  %43 = tail call i32 @getc(%struct._IO_FILE* %42) #3
  %44 = shl i32 %43, 24
  %45 = icmp eq i32 %44, 167772160
  br i1 %45, label %46, label %28, !llvm.loop !11

46:                                               ; preds = %40
  %47 = icmp eq i32 %41, 0
  br i1 %47, label %50, label %48

48:                                               ; preds = %46
  %49 = tail call i32 (i8*, ...) @printf(i8* nonnull dereferenceable(1) getelementptr inbounds ([5 x i8], [5 x i8]* @.str.3, i64 0, i64 0), i32 %41)
  br label %52

50:                                               ; preds = %19, %46
  %51 = tail call i32 @putchar(i32 10)
  br label %52

52:                                               ; preds = %48, %50, %25
  ret i32 0
}

; Function Attrs: nofree nounwind
declare noundef i32 @printf(i8* nocapture noundef readonly, ...) local_unnamed_addr #1

; Function Attrs: nofree nounwind
declare noundef i32 @getc(%struct._IO_FILE* nocapture noundef) local_unnamed_addr #1

; Function Attrs: nofree nounwind
declare noundef i32 @putchar(i32 noundef) local_unnamed_addr #2


!llvm.module.flags = !{!0, !1, !2, !3}
!llvm.ident = !{!4}

!0 = !{i32 1, !"wchar_size", i32 4}
!1 = !{i32 7, !"PIC Level", i32 2}
!2 = !{i32 7, !"PIE Level", i32 2}
!3 = !{i32 7, !"uwtable", i32 1}
!4 = !{!"clang version 13.0.0"}
!5 = !{!6, !6, i64 0}
!6 = !{!"any pointer", !7, i64 0}
!7 = !{!"omnipotent char", !8, i64 0}
!8 = !{!"Simple C/C++ TBAA"}
!9 = distinct !{!9, !10}
!10 = !{!"llvm.loop.mustprogress"}
!11 = distinct !{!11, !10}
